; Function Attrs: mustprogress nofree nounwind willreturn memory(read) uwtable
define noundef i64 @_ZN3gmx10countWordsEPKc(ptr nocapture noundef readonly %0) local_unnamed_addr #0 {
  %2 = tail call i64 @strlen(ptr noundef nonnull dereferenceable(1) %0) #21
  %.not15 = icmp eq i64 %2, 0
  br i1 %.not15, label %._crit_edge, label %.lr.ph

.lr.ph:                                           ; preds = %1, %.loopexit
  %.014 = phi i64 [ %.pre-phi, %.loopexit ], [ 0, %1 ]
  %.01013 = phi i64 [ %.111, %.loopexit ], [ 0, %1 ]
  %3 = getelementptr inbounds i8, ptr %0, i64 %.014
  %4 = load i8, ptr %3, align 1
  %5 = sext i8 %4 to i32
  %6 = tail call i32 @isalnum(i32 noundef %5) #21
  %.not = icmp eq i32 %6, 0
  br i1 %.not, label %.lr.ph..loopexit_crit_edge, label %.preheader

.lr.ph..loopexit_crit_edge:                       ; preds = %.lr.ph
  %.pre = add nuw i64 %.014, 1
  br label %.loopexit

.preheader:                                       ; preds = %.lr.ph, %.preheader
  %.1 = phi i64 [ %11, %.preheader ], [ %.014, %.lr.ph ]
  %7 = getelementptr inbounds i8, ptr %0, i64 %.1
  %8 = load i8, ptr %7, align 1
  %9 = sext i8 %8 to i32
  %10 = tail call i32 @isalnum(i32 noundef %9) #21
  %.not12 = icmp eq i32 %10, 0
  %11 = add i64 %.1, 1
  br i1 %.not12, label %.loopexit.loopexit, label %.preheader, !llvm.loop !5

.loopexit.loopexit:                               ; preds = %.preheader
  %12 = add i64 %.01013, 1
  br label %.loopexit

.loopexit:                                        ; preds = %.lr.ph..loopexit_crit_edge, %.loopexit.loopexit
  %.pre-phi = phi i64 [ %.pre, %.lr.ph..loopexit_crit_edge ], [ %11, %.loopexit.loopexit ]
  %.111 = phi i64 [ %.01013, %.lr.ph..loopexit_crit_edge ], [ %12, %.loopexit.loopexit ]
  %13 = icmp ult i64 %.pre-phi, %2
  br i1 %13, label %.lr.ph, label %._crit_edge, !llvm.loop !7

._crit_edge:                                      ; preds = %.loopexit, %1
  %.010.lcssa = phi i64 [ 0, %1 ], [ %.111, %.loopexit ]
  ret i64 %.010.lcssa
}